(lp0
(lp1
S'atac_seq_yli11_2020-06-11.report.html'
p2
aaS'atac_seq_yli11_2020-06-11'
p3
a(dp4
S'treat_pvalue.bw'
p5
S'https://ppr.stjude.org/?study=HemPipelines/yli11/cd01f29076b0/treat_pvalue.bw.json'
p6
sS'rmdup.bw'
p7
S'https://ppr.stjude.org/?study=HemPipelines/yli11/c70ba8139cc5/rmdup.bw.json'
p8
sS'rmdup.uq.bw'
p9
S'https://ppr.stjude.org/?study=HemPipelines/yli11/145f70331427/rmdup.uq.bw.json'
p10
sS'FE.bw'
p11
S'https://ppr.stjude.org/?study=HemPipelines/yli11/6a6dba74aae6/FE.bw.json'
p12
sS'all.bw'
p13
S'https://ppr.stjude.org/?study=HemPipelines/yli11/dec6be54a02e/all.bw.json'
p14
sS'logLR.bw'
p15
S'https://ppr.stjude.org/?study=HemPipelines/yli11/a95d5bb12416/logLR.bw.json'
p16
sa.