(lp0
(lp1
S'histone_input_HPC5_combined.markdup.uq.pdf'
p2
aS'1706666_MW127_H3K27ac.markdup.uq.pdf'
p3
aS'1706665_MW127_H3K27ac.markdup.uq.pdf'
p4
aS'chip_seq_single_yli11_2020-06-08.report.html'
p5
aaS'chip_seq_single_yli11_2020-06-08'
p6
a(dp7
S'treat_pvalue.bw'
p8
S'https://ppr.stjude.org/?study=HemPipelines/yli11/ae152dc376eb/treat_pvalue.bw.json'
p9
sS'rmdup.bw'
p10
S'https://ppr.stjude.org/?study=HemPipelines/yli11/cfee346c6a88/rmdup.bw.json'
p11
sS'rmdup.uq.bw'
p12
S'https://ppr.stjude.org/?study=HemPipelines/yli11/e6c70970bf72/rmdup.uq.bw.json'
p13
sS'FE.bw'
p14
S'https://ppr.stjude.org/?study=HemPipelines/yli11/6b2ebeb61f60/FE.bw.json'
p15
sS'all.bw'
p16
S'https://ppr.stjude.org/?study=HemPipelines/yli11/139a62593d03/all.bw.json'
p17
sS'logLR.bw'
p18
S'https://ppr.stjude.org/?study=HemPipelines/yli11/935790edeb75/logLR.bw.json'
p19
sa.